; Function Attrs: mustprogress uwtable
define noundef zeroext i1 @_ZN4base15SparseHistogram20AddSamplesFromPickleEPNS_14PickleIteratorE(ptr noundef nonnull align 8 dereferenceable(112) %0, ptr noundef %1) unnamed_addr #0 align 2 personality ptr @__gxx_personality_v0 {
  %3 = getelementptr inbounds nuw i8, ptr %0, i64 48
  tail call void @_ZN4base8internal8LockImpl4LockEv(ptr noundef nonnull align 8 dereferenceable(40) %3)
  %4 = getelementptr inbounds nuw i8, ptr %0, i64 96
  %5 = load ptr, ptr %4, align 8, !tbaa !20
  %6 = load ptr, ptr %5, align 8, !tbaa !16
  %7 = getelementptr inbounds nuw i8, ptr %6, i64 48
  %8 = load ptr, ptr %7, align 8
  %9 = invoke noundef zeroext i1 %8(ptr noundef nonnull align 8 dereferenceable(40) %5, ptr noundef %1)
          to label %10 unwind label %14

10:                                               ; preds = %2
  invoke void @_ZN4base8internal8LockImpl6UnlockEv(ptr noundef nonnull align 8 dereferenceable(40) %3)
          to label %_ZN4base8AutoLockD2Ev.exit unwind label %11

11:                                               ; preds = %10
  %12 = landingpad { ptr, i32 }
          catch ptr null
  %13 = extractvalue { ptr, i32 } %12, 0
  tail call void @__clang_call_terminate(ptr %13) #17
  unreachable

_ZN4base8AutoLockD2Ev.exit:                       ; preds = %10
  ret i1 %9

14:                                               ; preds = %2
  %15 = landingpad { ptr, i32 }
          cleanup
  invoke void @_ZN4base8internal8LockImpl6UnlockEv(ptr noundef nonnull align 8 dereferenceable(40) %3)
          to label %_ZN4base8AutoLockD2Ev.exit3 unwind label %16

16:                                               ; preds = %14
  %17 = landingpad { ptr, i32 }
          catch ptr null
  %18 = extractvalue { ptr, i32 } %17, 0
  tail call void @__clang_call_terminate(ptr %18) #17
  unreachable

_ZN4base8AutoLockD2Ev.exit3:                      ; preds = %14
  resume { ptr, i32 } %15
}